; ModuleID = 'source-C-CXX/4/184.c'
source_filename = "source-C-CXX/4/184.c"
target datalayout = "e-m:e-p270:32:32-p271:32:32-p272:64:64-i64:64-f80:128-n8:16:32:64-S128"
target triple = "x86_64-pc-linux-gnu"

@.str = private unnamed_addr constant [4 x i8] c"%lf\00", align 1
@.str.1 = private unnamed_addr constant [3 x i8] c"%s\00", align 1
@.str.2 = private unnamed_addr constant [6 x i8] c"error\00", align 1
@.str.3 = private unnamed_addr constant [4 x i8] c"yes\00", align 1
@.str.4 = private unnamed_addr constant [3 x i8] c"no\00", align 1
@.str.5 = private unnamed_addr constant [3 x i8] c"%d\00", align 1

; Function Attrs: nofree nounwind sspstrong uwtable
define dso_local i32 @main() local_unnamed_addr #0 {
  %1 = alloca double, align 8
  %2 = alloca [100 x i8], align 16
  %3 = alloca [100 x i8], align 16
  %4 = alloca i32, align 4
  %5 = bitcast double* %1 to i8*
  call void @llvm.lifetime.start.p0i8(i64 8, i8* nonnull %5) #4
  %6 = getelementptr inbounds [100 x i8], [100 x i8]* %2, i64 0, i64 0
  call void @llvm.lifetime.start.p0i8(i64 100, i8* nonnull %6) #4
  %7 = getelementptr inbounds [100 x i8], [100 x i8]* %3, i64 0, i64 0
  call void @llvm.lifetime.start.p0i8(i64 100, i8* nonnull %7) #4
  %8 = call i32 (i8*, ...) @__isoc99_scanf(i8* getelementptr inbounds ([4 x i8], [4 x i8]* @.str, i64 0, i64 0), double* nonnull %1)
  %9 = call i32 (i8*, ...) @__isoc99_scanf(i8* getelementptr inbounds ([3 x i8], [3 x i8]* @.str.1, i64 0, i64 0), i8* nonnull %6)
  %10 = call i32 (i8*, ...) @__isoc99_scanf(i8* getelementptr inbounds ([3 x i8], [3 x i8]* @.str.1, i64 0, i64 0), i8* nonnull %7)
  %11 = call i64 @strlen(i8* noundef nonnull %6) #5
  %12 = call i64 @strlen(i8* noundef nonnull %7) #5
  %13 = icmp eq i64 %11, %12
  br i1 %13, label %14, label %47

14:                                               ; preds = %0
  %15 = add i64 %11, -1
  br label %16

16:                                               ; preds = %14, %27
  %17 = phi i64 [ 0, %14 ], [ %31, %27 ]
  %18 = phi i1 [ false, %14 ], [ %32, %27 ]
  %19 = phi i32 [ 0, %14 ], [ %30, %27 ]
  %20 = getelementptr inbounds [100 x i8], [100 x i8]* %2, i64 0, i64 %17
  %21 = load i8, i8* %20, align 1, !tbaa !5
  switch i8 %21, label %25 [
    i8 65, label %22
    i8 71, label %22
    i8 67, label %22
    i8 84, label %22
  ]

22:                                               ; preds = %16, %16, %16, %16
  %23 = getelementptr inbounds [100 x i8], [100 x i8]* %3, i64 0, i64 %17
  %24 = load i8, i8* %23, align 1, !tbaa !5
  switch i8 %24, label %25 [
    i8 65, label %27
    i8 71, label %27
    i8 67, label %27
    i8 84, label %27
  ]

25:                                               ; preds = %22, %16
  %26 = call i32 (i8*, ...) @printf(i8* nonnull dereferenceable(1) getelementptr inbounds ([6 x i8], [6 x i8]* @.str.2, i64 0, i64 0))
  br label %34

27:                                               ; preds = %22, %22, %22, %22
  %28 = icmp eq i8 %21, %24
  %29 = zext i1 %28 to i32
  %30 = add nuw nsw i32 %19, %29
  %31 = add nuw i64 %17, 1
  %32 = icmp ule i64 %15, %17
  %33 = icmp eq i64 %31, %11
  br i1 %33, label %34, label %16, !llvm.loop !8

34:                                               ; preds = %27, %25
  %35 = phi i32 [ %19, %25 ], [ %30, %27 ]
  %36 = phi i1 [ %18, %25 ], [ %32, %27 ]
  %37 = sitofp i32 %35 to double
  %38 = call i64 @strlen(i8* noundef nonnull %6) #5
  %39 = uitofp i64 %38 to double
  %40 = fdiv double %37, %39
  %41 = load double, double* %1, align 8, !tbaa !10
  %42 = fcmp ogt double %40, %41
  %43 = select i1 %42, i1 %36, i1 false
  br i1 %43, label %47, label %44

44:                                               ; preds = %34
  %45 = fcmp ole double %40, %41
  %46 = select i1 %45, i1 %36, i1 false
  br i1 %46, label %47, label %50

47:                                               ; preds = %44, %34, %0
  %48 = phi i8* [ getelementptr inbounds ([6 x i8], [6 x i8]* @.str.2, i64 0, i64 0), %0 ], [ getelementptr inbounds ([4 x i8], [4 x i8]* @.str.3, i64 0, i64 0), %34 ], [ getelementptr inbounds ([3 x i8], [3 x i8]* @.str.4, i64 0, i64 0), %44 ]
  %49 = call i32 (i8*, ...) @printf(i8* nonnull dereferenceable(1) %48)
  br label %50

50:                                               ; preds = %47, %44
  %51 = bitcast i32* %4 to i8*
  call void @llvm.lifetime.start.p0i8(i64 4, i8* nonnull %51) #4
  %52 = call i32 (i8*, ...) @__isoc99_scanf(i8* getelementptr inbounds ([3 x i8], [3 x i8]* @.str.5, i64 0, i64 0), i32* nonnull %4)
  call void @llvm.lifetime.end.p0i8(i64 4, i8* nonnull %51) #4
  call void @llvm.lifetime.end.p0i8(i64 100, i8* nonnull %7) #4
  call void @llvm.lifetime.end.p0i8(i64 100, i8* nonnull %6) #4
  call void @llvm.lifetime.end.p0i8(i64 8, i8* nonnull %5) #4
  ret i32 0
}

; Function Attrs: argmemonly mustprogress nofree nosync nounwind willreturn
declare void @llvm.lifetime.start.p0i8(i64 immarg, i8* nocapture) #1

; Function Attrs: nofree nounwind
declare noundef i32 @__isoc99_scanf(i8* nocapture noundef readonly, ...) local_unnamed_addr #2

; Function Attrs: argmemonly mustprogress nofree nounwind readonly willreturn
declare i64 @strlen(i8* nocapture) local_unnamed_addr #3

; Function Attrs: nofree nounwind
declare noundef i32 @printf(i8* nocapture noundef readonly, ...) local_unnamed_addr #2

; Function Attrs: argmemonly mustprogress nofree nosync nounwind willreturn
declare void @llvm.lifetime.end.p0i8(i64 immarg, i8* nocapture) #1


!llvm.module.flags = !{!0, !1, !2, !3}
!llvm.ident = !{!4}

!0 = !{i32 1, !"wchar_size", i32 4}
!1 = !{i32 7, !"PIC Level", i32 2}
!2 = !{i32 7, !"PIE Level", i32 2}
!3 = !{i32 7, !"uwtable", i32 1}
!4 = !{!"clang version 13.0.0"}
!5 = !{!6, !6, i64 0}
!6 = !{!"omnipotent char", !7, i64 0}
!7 = !{!"Simple C/C++ TBAA"}
!8 = distinct !{!8, !9}
!9 = !{!"llvm.loop.mustprogress"}
!10 = !{!11, !11, i64 0}
!11 = !{!"double", !6, i64 0}
